target datalayout = "e-m:e-p270:32:32-p271:32:32-p272:64:64-i64:64-i128:128-f80:128-n8:16:32:64-S128"
target triple = "x86_64-unknown-linux-gnu"

%struct.QTailQLink = type { ptr, ptr }
%struct.CompareState = type { %struct.Object, ptr, ptr, ptr, ptr, %struct.CharBackend, %struct.CharBackend, %struct.CharBackend, %struct.CharBackend, %struct.SocketReadState, %struct.SocketReadState, %struct.SocketReadState, %struct.SendCo, %struct.SendCo, i8, i64, i32, %struct._GQueue, ptr, ptr, ptr, ptr, ptr, i32, %union.anon.0 }
%struct.Object = type { ptr, ptr, ptr, i32, ptr }
%struct.CharBackend = type { ptr, ptr, ptr, ptr, ptr, ptr, i32, i32 }
%struct.SocketReadState = type { i32, i8, i32, i32, i32, [69632 x i8], ptr }
%struct.SendCo = type { ptr, ptr, ptr, %struct._GQueue, i8, i8, i32 }
%struct._GQueue = type { ptr, ptr, i32 }
%union.anon.0 = type { %struct.QTailQLink }

@.str = private unnamed_addr constant [27 x i8] c"../qemu/net/colo-compare.c\00", align 1
@.str.1 = private unnamed_addr constant [13 x i8] c"colo-compare\00", align 1
@__func__.COLO_COMPARE = private unnamed_addr constant [13 x i8] c"COLO_COMPARE\00", align 1

; Function Attrs: nounwind sspstrong uwtable
define internal ptr @COLO_COMPARE(ptr noundef %obj) #0 {
entry:
  %obj.addr = alloca ptr, align 8
  store ptr %obj, ptr %obj.addr, align 8
  %0 = load ptr, ptr %obj.addr, align 8
  %call = call ptr @object_dynamic_cast_assert(ptr noundef %0, ptr noundef @.str.1, ptr noundef @.str, i32 noundef 40, ptr noundef @__func__.COLO_COMPARE)
  ret ptr %call
}

; Function Attrs: nounwind sspstrong uwtable
define internal void @compare_set_pri_indev(ptr noundef %obj, ptr noundef %value, ptr noundef %errp) #0 {
entry:
  %obj.addr = alloca ptr, align 8
  %value.addr = alloca ptr, align 8
  %errp.addr = alloca ptr, align 8
  %s = alloca ptr, align 8
  store ptr %obj, ptr %obj.addr, align 8
  store ptr %value, ptr %value.addr, align 8
  store ptr %errp, ptr %errp.addr, align 8
  %0 = load ptr, ptr %obj.addr, align 8
  %call = call ptr @COLO_COMPARE(ptr noundef %0)
  store ptr %call, ptr %s, align 8
  %1 = load ptr, ptr %s, align 8
  %pri_indev = getelementptr inbounds %struct.CompareState, ptr %1, i32 0, i32 1
  %2 = load ptr, ptr %pri_indev, align 8
  call void @g_free(ptr noundef %2)
  %3 = load ptr, ptr %value.addr, align 8
  %call1 = call noalias ptr @g_strdup(ptr noundef %3)
  %4 = load ptr, ptr %s, align 8
  %pri_indev2 = getelementptr inbounds %struct.CompareState, ptr %4, i32 0, i32 1
  store ptr %call1, ptr %pri_indev2, align 8
  ret void
}